target datalayout = "e-m:e-p270:32:32-p271:32:32-p272:64:64-i64:64-i128:128-f80:128-n8:16:32:64-S128"
target triple = "x86_64-pc-linux-gnu"

%struct.Extra_SymmInfo_t_ = type { i32, i32, i32, i32, ptr, ptr }

; Function Attrs: nounwind uwtable
define void @Extra_SymmPairsDissolve(ptr noundef %0) #0 {
  %2 = alloca ptr, align 8
  store ptr %0, ptr %2, align 8, !tbaa !10
  %3 = load ptr, ptr %2, align 8, !tbaa !10
  %4 = getelementptr inbounds nuw %struct.Extra_SymmInfo_t_, ptr %3, i32 0, i32 4
  %5 = load ptr, ptr %4, align 8, !tbaa !40
  %6 = icmp ne ptr %5, null
  br i1 %6, label %7, label %13

7:                                                ; preds = %1
  %8 = load ptr, ptr %2, align 8, !tbaa !10
  %9 = getelementptr inbounds nuw %struct.Extra_SymmInfo_t_, ptr %8, i32 0, i32 4
  %10 = load ptr, ptr %9, align 8, !tbaa !40
  call void @free(ptr noundef %10) #6
  %11 = load ptr, ptr %2, align 8, !tbaa !10
  %12 = getelementptr inbounds nuw %struct.Extra_SymmInfo_t_, ptr %11, i32 0, i32 4
  store ptr null, ptr %12, align 8, !tbaa !40
  br label %14

13:                                               ; preds = %1
  br label %14

14:                                               ; preds = %13, %7
  %15 = load ptr, ptr %2, align 8, !tbaa !10
  %16 = getelementptr inbounds nuw %struct.Extra_SymmInfo_t_, ptr %15, i32 0, i32 5
  %17 = load ptr, ptr %16, align 8, !tbaa !44
  %18 = getelementptr inbounds ptr, ptr %17, i64 0
  %19 = load ptr, ptr %18, align 8, !tbaa !45
  %20 = icmp ne ptr %19, null
  br i1 %20, label %21, label %31

21:                                               ; preds = %14
  %22 = load ptr, ptr %2, align 8, !tbaa !10
  %23 = getelementptr inbounds nuw %struct.Extra_SymmInfo_t_, ptr %22, i32 0, i32 5
  %24 = load ptr, ptr %23, align 8, !tbaa !44
  %25 = getelementptr inbounds ptr, ptr %24, i64 0
  %26 = load ptr, ptr %25, align 8, !tbaa !45
  call void @free(ptr noundef %26) #6
  %27 = load ptr, ptr %2, align 8, !tbaa !10
  %28 = getelementptr inbounds nuw %struct.Extra_SymmInfo_t_, ptr %27, i32 0, i32 5
  %29 = load ptr, ptr %28, align 8, !tbaa !44
  %30 = getelementptr inbounds ptr, ptr %29, i64 0
  store ptr null, ptr %30, align 8, !tbaa !45
  br label %32

31:                                               ; preds = %14
  br label %32

32:                                               ; preds = %31, %21
  %33 = load ptr, ptr %2, align 8, !tbaa !10
  %34 = getelementptr inbounds nuw %struct.Extra_SymmInfo_t_, ptr %33, i32 0, i32 5
  %35 = load ptr, ptr %34, align 8, !tbaa !44
  %36 = icmp ne ptr %35, null
  br i1 %36, label %37, label %43

37:                                               ; preds = %32
  %38 = load ptr, ptr %2, align 8, !tbaa !10
  %39 = getelementptr inbounds nuw %struct.Extra_SymmInfo_t_, ptr %38, i32 0, i32 5
  %40 = load ptr, ptr %39, align 8, !tbaa !44
  call void @free(ptr noundef %40) #6
  %41 = load ptr, ptr %2, align 8, !tbaa !10
  %42 = getelementptr inbounds nuw %struct.Extra_SymmInfo_t_, ptr %41, i32 0, i32 5
  store ptr null, ptr %42, align 8, !tbaa !44
  br label %44

43:                                               ; preds = %32
  br label %44

44:                                               ; preds = %43, %37
  %45 = load ptr, ptr %2, align 8, !tbaa !10
  %46 = icmp ne ptr %45, null
  br i1 %46, label %47, label %49

47:                                               ; preds = %44
  %48 = load ptr, ptr %2, align 8, !tbaa !10
  call void @free(ptr noundef %48) #6
  store ptr null, ptr %2, align 8, !tbaa !10
  br label %50

49:                                               ; preds = %44
  br label %50

50:                                               ; preds = %49, %47
  ret void
}