; Function Attrs: mustprogress nounwind willreturn uwtable
define void @Extra_SymmPairsDissolve(ptr noundef captures(none) %0) local_unnamed_addr #4 {
  %2 = getelementptr inbounds nuw i8, ptr %0, i64 16
  %3 = load ptr, ptr %2, align 8, !tbaa !29
  %.not = icmp eq ptr %3, null
  br i1 %.not, label %5, label %4

4:                                                ; preds = %1
  tail call void @free(ptr noundef nonnull %3) #10
  store ptr null, ptr %2, align 8, !tbaa !29
  br label %5

5:                                                ; preds = %1, %4
  %6 = getelementptr inbounds nuw i8, ptr %0, i64 24
  %7 = load ptr, ptr %6, align 8, !tbaa !30
  %8 = load ptr, ptr %7, align 8, !tbaa !31
  %.not14 = icmp eq ptr %8, null
  br i1 %.not14, label %10, label %.thread

.thread:                                          ; preds = %5
  tail call void @free(ptr noundef nonnull %8) #10
  %9 = load ptr, ptr %6, align 8, !tbaa !30
  store ptr null, ptr %9, align 8, !tbaa !31
  br label %10

10:                                               ; preds = %5, %.thread
  %11 = phi ptr [ %9, %.thread ], [ %7, %5 ]
  tail call void @free(ptr noundef nonnull %11) #10
  tail call void @free(ptr noundef nonnull %0) #10
  ret void
}